target datalayout = "e-m:e-p270:32:32-p271:32:32-p272:64:64-i64:64-i128:128-f80:128-n8:16:32:64-S128"
target triple = "x86_64-pc-linux-gnu"

%struct.Vec_Int_t_ = type { i32, i32, ptr }
%struct.Abc_Ntk_t_ = type { i32, i32, ptr, ptr, ptr, ptr, ptr, ptr, ptr, ptr, ptr, ptr, ptr, [11 x i32], i32, i32, i32, i32, ptr, i32, ptr, ptr, i32, i32, i32, double, i32, %struct.Vec_Int_t_, ptr, ptr, ptr, ptr, ptr, float, i32, ptr, ptr, ptr, ptr, ptr, ptr, ptr, ptr, ptr, ptr, ptr, ptr, ptr, ptr, ptr, ptr, ptr, ptr, ptr, ptr, ptr }
%struct.Aig_Man_t_ = type { ptr, ptr, ptr, ptr, ptr, ptr, ptr, %struct.Aig_Obj_t_, i32, i32, i32, i32, i32, i32, [7 x i32], i32, ptr, i32, ptr, i32, ptr, i32, i32, i32, ptr, i32, i32, i32, i32, i32, ptr, ptr, i32, ptr, ptr, i32, ptr, ptr, i32, i32, i32, ptr, ptr, ptr, ptr, ptr, ptr, ptr, ptr, ptr, ptr, ptr, ptr, ptr, ptr, i32, ptr, ptr, ptr, ptr, i32, i64, i64, i64, ptr, ptr }
%struct.Aig_Obj_t_ = type { %union.anon, ptr, ptr, i64, i32, i32, %union.anon.0 }
%union.anon = type { ptr }
%union.anon.0 = type { ptr }
%struct.Inter_ManParams_t_ = type { i32, i32, i32, i32, i32, i32, i32, i32, i32, i32, i32, i32, i32, i32, i32, i32, i32, i32, ptr }

@.str.30 = private unnamed_addr constant [39 x i8] c"Converting miter into AIG has failed.\0A\00", align 1

; Function Attrs: nounwind uwtable
define i32 @Abc_NtkDarBmcInter(ptr noundef %0, ptr noundef %1, ptr noundef %2) #0 {
  %4 = alloca i32, align 4
  %5 = alloca ptr, align 8
  %6 = alloca ptr, align 8
  %7 = alloca ptr, align 8
  %8 = alloca ptr, align 8
  %9 = alloca i32, align 4
  %10 = alloca ptr, align 8
  store ptr %0, ptr %5, align 8
  store ptr %1, ptr %6, align 8
  store ptr %2, ptr %7, align 8
  %11 = load ptr, ptr %7, align 8
  %12 = icmp ne ptr %11, null
  br i1 %12, label %13, label %15

13:                                               ; preds = %3
  %14 = load ptr, ptr %7, align 8
  store ptr null, ptr %14, align 8
  br label %15

15:                                               ; preds = %13, %3
  %16 = load ptr, ptr %5, align 8
  %17 = call ptr @Abc_NtkToDar(ptr noundef %16, i32 noundef 0, i32 noundef 1)
  store ptr %17, ptr %8, align 8
  %18 = load ptr, ptr %8, align 8
  %19 = icmp eq ptr %18, null
  br i1 %19, label %20, label %21

20:                                               ; preds = %15
  call void (i32, ptr, ...) @Abc_Print(i32 noundef 1, ptr noundef @.str.30)
  store i32 -1, ptr %4, align 4
  br label %75

21:                                               ; preds = %15
  %22 = load ptr, ptr %6, align 8
  %23 = getelementptr inbounds %struct.Inter_ManParams_t_, ptr %22, i32 0, i32 12
  %24 = load i32, ptr %23, align 8
  %25 = icmp ne i32 %24, 0
  br i1 %25, label %26, label %37

26:                                               ; preds = %21
  %27 = load ptr, ptr %7, align 8
  %28 = icmp ne ptr %27, null
  br i1 %28, label %29, label %37

29:                                               ; preds = %26
  %30 = load ptr, ptr %8, align 8
  %31 = load ptr, ptr %6, align 8
  %32 = call i32 @Abc_NtkDarBmcInter_int(ptr noundef %30, ptr noundef %31, ptr noundef %10)
  store i32 %32, ptr %9, align 4
  %33 = load ptr, ptr %10, align 8
  %34 = call ptr @Abc_NtkFromAigPhase(ptr noundef %33)
  %35 = load ptr, ptr %7, align 8
  store ptr %34, ptr %35, align 8
  %36 = load ptr, ptr %10, align 8
  call void @Aig_ManStop(ptr noundef %36)
  br label %41

37:                                               ; preds = %26, %21
  %38 = load ptr, ptr %8, align 8
  %39 = load ptr, ptr %6, align 8
  %40 = call i32 @Abc_NtkDarBmcInter_int(ptr noundef %38, ptr noundef %39, ptr noundef null)
  store i32 %40, ptr %9, align 4
  br label %41

41:                                               ; preds = %37, %29
  %42 = load ptr, ptr %5, align 8
  %43 = getelementptr inbounds %struct.Abc_Ntk_t_, ptr %42, i32 0, i32 37
  %44 = load ptr, ptr %43, align 8
  %45 = icmp ne ptr %44, null
  br i1 %45, label %46, label %52

46:                                               ; preds = %41
  %47 = load ptr, ptr %5, align 8
  %48 = getelementptr inbounds %struct.Abc_Ntk_t_, ptr %47, i32 0, i32 37
  %49 = load ptr, ptr %48, align 8
  call void @free(ptr noundef %49) #10
  %50 = load ptr, ptr %5, align 8
  %51 = getelementptr inbounds %struct.Abc_Ntk_t_, ptr %50, i32 0, i32 37
  store ptr null, ptr %51, align 8
  br label %53

52:                                               ; preds = %41
  br label %53

53:                                               ; preds = %52, %46
  %54 = load ptr, ptr %5, align 8
  %55 = getelementptr inbounds %struct.Abc_Ntk_t_, ptr %54, i32 0, i32 38
  %56 = load ptr, ptr %55, align 8
  %57 = icmp ne ptr %56, null
  br i1 %57, label %58, label %64

58:                                               ; preds = %53
  %59 = load ptr, ptr %5, align 8
  %60 = getelementptr inbounds %struct.Abc_Ntk_t_, ptr %59, i32 0, i32 38
  %61 = load ptr, ptr %60, align 8
  call void @free(ptr noundef %61) #10
  %62 = load ptr, ptr %5, align 8
  %63 = getelementptr inbounds %struct.Abc_Ntk_t_, ptr %62, i32 0, i32 38
  store ptr null, ptr %63, align 8
  br label %65

64:                                               ; preds = %53
  br label %65

65:                                               ; preds = %64, %58
  %66 = load ptr, ptr %8, align 8
  %67 = getelementptr inbounds %struct.Aig_Man_t_, ptr %66, i32 0, i32 51
  %68 = load ptr, ptr %67, align 8
  %69 = load ptr, ptr %5, align 8
  %70 = getelementptr inbounds %struct.Abc_Ntk_t_, ptr %69, i32 0, i32 38
  store ptr %68, ptr %70, align 8
  %71 = load ptr, ptr %8, align 8
  %72 = getelementptr inbounds %struct.Aig_Man_t_, ptr %71, i32 0, i32 51
  store ptr null, ptr %72, align 8
  %73 = load ptr, ptr %8, align 8
  call void @Aig_ManStop(ptr noundef %73)
  %74 = load i32, ptr %9, align 4
  store i32 %74, ptr %4, align 4
  br label %75

75:                                               ; preds = %65, %20
  %76 = load i32, ptr %4, align 4
  ret i32 %76
}