; Function Attrs: nounwind uwtable
define noundef i32 @Abc_NtkDarBmcInter(ptr noundef %0, ptr noundef %1, ptr noundef writeonly %2) local_unnamed_addr #1 {
  %4 = alloca ptr, align 8
  %5 = icmp ne ptr %2, null
  br i1 %5, label %6, label %7

6:                                                ; preds = %3
  store ptr null, ptr %2, align 8
  br label %7

7:                                                ; preds = %6, %3
  %8 = tail call ptr @Abc_NtkToDar(ptr noundef %0, i32 noundef 0, i32 noundef 1)
  %9 = icmp eq ptr %8, null
  br i1 %9, label %10, label %11

10:                                               ; preds = %7
  tail call void (i32, ptr, ...) @Abc_Print(i32 poison, ptr noundef nonnull @.str.30)
  br label %33

11:                                               ; preds = %7
  %12 = getelementptr inbounds nuw i8, ptr %1, i64 48
  %13 = load i32, ptr %12, align 8
  %14 = icmp ne i32 %13, 0
  %or.cond = and i1 %5, %14
  br i1 %or.cond, label %15, label %20

15:                                               ; preds = %11
  %16 = call i32 @Abc_NtkDarBmcInter_int(ptr noundef nonnull %8, ptr noundef nonnull %1, ptr noundef nonnull %4)
  %17 = load ptr, ptr %4, align 8
  %18 = call ptr @Abc_NtkFromAigPhase(ptr noundef %17)
  store ptr %18, ptr %2, align 8
  %19 = load ptr, ptr %4, align 8
  call void @Aig_ManStop(ptr noundef %19) #19
  br label %22

20:                                               ; preds = %11
  %21 = tail call i32 @Abc_NtkDarBmcInter_int(ptr noundef nonnull %8, ptr noundef nonnull %1, ptr noundef null)
  br label %22

22:                                               ; preds = %20, %15
  %.0 = phi i32 [ %16, %15 ], [ %21, %20 ]
  %23 = getelementptr inbounds nuw i8, ptr %0, i64 304
  %24 = load ptr, ptr %23, align 8
  %.not = icmp eq ptr %24, null
  br i1 %.not, label %26, label %25

25:                                               ; preds = %22
  call void @free(ptr noundef nonnull %24) #19
  store ptr null, ptr %23, align 8
  br label %26

26:                                               ; preds = %22, %25
  %27 = getelementptr inbounds nuw i8, ptr %0, i64 312
  %28 = load ptr, ptr %27, align 8
  %.not28 = icmp eq ptr %28, null
  br i1 %.not28, label %30, label %29

29:                                               ; preds = %26
  call void @free(ptr noundef nonnull %28) #19
  store ptr null, ptr %27, align 8
  br label %30

30:                                               ; preds = %26, %29
  %31 = getelementptr inbounds nuw i8, ptr %8, i64 408
  %32 = load ptr, ptr %31, align 8
  store ptr %32, ptr %27, align 8
  store ptr null, ptr %31, align 8
  call void @Aig_ManStop(ptr noundef nonnull %8) #19
  br label %33

33:                                               ; preds = %30, %10
  %.023 = phi i32 [ -1, %10 ], [ %.0, %30 ]
  ret i32 %.023
}